target datalayout = "e-m:e-p270:32:32-p271:32:32-p272:64:64-i64:64-i128:128-f80:128-n8:16:32:64-S128"
target triple = "x86_64-pc-linux-gnu"

%struct.ThreadData = type { ptr, ptr }
%struct.AVFilterLink = type { ptr, ptr, ptr, ptr, i32, i32, i32, i32, %struct.AVRational, i32, i32, i32, %struct.AVChannelLayout, %struct.AVRational, ptr, i32, %struct.AVFilterFormatsConfig, %struct.AVFilterFormatsConfig }
%struct.AVChannelLayout = type { i32, i32, %union.anon.1, ptr }
%union.anon.1 = type { i64 }
%struct.AVRational = type { i32, i32 }
%struct.AVFilterFormatsConfig = type { ptr, ptr, ptr, ptr, ptr }
%struct.AVFilterContext = type { ptr, ptr, ptr, ptr, ptr, i32, ptr, ptr, i32, ptr, ptr, i32, i32, ptr, ptr, ptr, ptr, i32, ptr, i32, i32 }
%struct.VibranceContext = type { ptr, float, [3 x float], [3 x float], i32, i32, i32, [4 x i8], ptr }
%struct.AVFrame = type { [8 x ptr], [8 x i32], ptr, i32, i32, i32, i32, i32, %struct.AVRational, i64, i64, %struct.AVRational, i32, ptr, i32, i32, [8 x ptr], ptr, i32, ptr, i32, i32, i32, i32, i32, i32, i32, i64, ptr, i32, ptr, ptr, i64, i64, i64, i64, ptr, %struct.AVChannelLayout, i64 }

; Function Attrs: nounwind uwtable
define internal i32 @filter_frame(ptr noundef %0, ptr noundef %1) #1 {
  %3 = alloca i32, align 4
  %4 = alloca ptr, align 8
  %5 = alloca ptr, align 8
  %6 = alloca ptr, align 8
  %7 = alloca ptr, align 8
  %8 = alloca ptr, align 8
  %9 = alloca %struct.ThreadData, align 8
  %10 = alloca ptr, align 8
  %11 = alloca i32, align 4
  %12 = alloca i32, align 4
  store ptr %0, ptr %4, align 8, !tbaa !4
  store ptr %1, ptr %5, align 8, !tbaa !9
  call void @llvm.lifetime.start.p0(i64 8, ptr %6) #9
  %13 = load ptr, ptr %4, align 8, !tbaa !4
  %14 = getelementptr inbounds nuw %struct.AVFilterLink, ptr %13, i32 0, i32 2
  %15 = load ptr, ptr %14, align 8, !tbaa !11
  store ptr %15, ptr %6, align 8, !tbaa !23
  call void @llvm.lifetime.start.p0(i64 8, ptr %7) #9
  %16 = load ptr, ptr %6, align 8, !tbaa !23
  %17 = getelementptr inbounds nuw %struct.AVFilterContext, ptr %16, i32 0, i32 7
  %18 = load ptr, ptr %17, align 8, !tbaa !24
  %19 = getelementptr inbounds ptr, ptr %18, i64 0
  %20 = load ptr, ptr %19, align 8, !tbaa !4
  store ptr %20, ptr %7, align 8, !tbaa !4
  call void @llvm.lifetime.start.p0(i64 8, ptr %8) #9
  %21 = load ptr, ptr %6, align 8, !tbaa !23
  %22 = getelementptr inbounds nuw %struct.AVFilterContext, ptr %21, i32 0, i32 9
  %23 = load ptr, ptr %22, align 8, !tbaa !34
  store ptr %23, ptr %8, align 8, !tbaa !35
  call void @llvm.lifetime.start.p0(i64 16, ptr %9) #9
  call void @llvm.lifetime.start.p0(i64 8, ptr %10) #9
  call void @llvm.lifetime.start.p0(i64 4, ptr %11) #9
  %24 = load ptr, ptr %5, align 8, !tbaa !9
  %25 = call i32 @av_frame_is_writable(ptr noundef %24)
  %26 = icmp ne i32 %25, 0
  br i1 %26, label %27, label %29

27:                                               ; preds = %2
  %28 = load ptr, ptr %5, align 8, !tbaa !9
  store ptr %28, ptr %10, align 8, !tbaa !9
  br label %45

29:                                               ; preds = %2
  %30 = load ptr, ptr %7, align 8, !tbaa !4
  %31 = load ptr, ptr %7, align 8, !tbaa !4
  %32 = getelementptr inbounds nuw %struct.AVFilterLink, ptr %31, i32 0, i32 6
  %33 = load i32, ptr %32, align 8, !tbaa !37
  %34 = load ptr, ptr %7, align 8, !tbaa !4
  %35 = getelementptr inbounds nuw %struct.AVFilterLink, ptr %34, i32 0, i32 7
  %36 = load i32, ptr %35, align 4, !tbaa !38
  %37 = call ptr @ff_get_video_buffer(ptr noundef %30, i32 noundef %33, i32 noundef %36)
  store ptr %37, ptr %10, align 8, !tbaa !9
  %38 = load ptr, ptr %10, align 8, !tbaa !9
  %39 = icmp ne ptr %38, null
  br i1 %39, label %41, label %40

40:                                               ; preds = %29
  call void @av_frame_free(ptr noundef %5)
  store i32 -12, ptr %3, align 4
  store i32 1, ptr %12, align 4
  br label %82

41:                                               ; preds = %29
  %42 = load ptr, ptr %10, align 8, !tbaa !9
  %43 = load ptr, ptr %5, align 8, !tbaa !9
  %44 = call i32 @av_frame_copy_props(ptr noundef %42, ptr noundef %43)
  br label %45

45:                                               ; preds = %41, %27
  %46 = load ptr, ptr %10, align 8, !tbaa !9
  %47 = getelementptr inbounds nuw %struct.ThreadData, ptr %9, i32 0, i32 0
  store ptr %46, ptr %47, align 8, !tbaa !39
  %48 = load ptr, ptr %5, align 8, !tbaa !9
  %49 = getelementptr inbounds nuw %struct.ThreadData, ptr %9, i32 0, i32 1
  store ptr %48, ptr %49, align 8, !tbaa !41
  %50 = load ptr, ptr %6, align 8, !tbaa !23
  %51 = load ptr, ptr %8, align 8, !tbaa !35
  %52 = getelementptr inbounds nuw %struct.VibranceContext, ptr %51, i32 0, i32 8
  %53 = load ptr, ptr %52, align 8, !tbaa !42
  %54 = load ptr, ptr %10, align 8, !tbaa !9
  %55 = getelementptr inbounds nuw %struct.AVFrame, ptr %54, i32 0, i32 4
  %56 = load i32, ptr %55, align 4, !tbaa !45
  %57 = load ptr, ptr %6, align 8, !tbaa !23
  %58 = call i32 @ff_filter_get_nb_threads(ptr noundef %57) #10
  %59 = icmp sgt i32 %56, %58
  br i1 %59, label %60, label %63

60:                                               ; preds = %45
  %61 = load ptr, ptr %6, align 8, !tbaa !23
  %62 = call i32 @ff_filter_get_nb_threads(ptr noundef %61) #10
  br label %67

63:                                               ; preds = %45
  %64 = load ptr, ptr %10, align 8, !tbaa !9
  %65 = getelementptr inbounds nuw %struct.AVFrame, ptr %64, i32 0, i32 4
  %66 = load i32, ptr %65, align 4, !tbaa !45
  br label %67

67:                                               ; preds = %63, %60
  %68 = phi i32 [ %62, %60 ], [ %66, %63 ]
  %69 = call i32 @ff_filter_execute(ptr noundef %50, ptr noundef %53, ptr noundef %9, ptr noundef null, i32 noundef %68)
  store i32 %69, ptr %11, align 4, !tbaa !51
  %70 = icmp ne i32 %69, 0
  br i1 %70, label %71, label %73

71:                                               ; preds = %67
  %72 = load i32, ptr %11, align 4, !tbaa !51
  store i32 %72, ptr %3, align 4
  store i32 1, ptr %12, align 4
  br label %82

73:                                               ; preds = %67
  %74 = load ptr, ptr %10, align 8, !tbaa !9
  %75 = load ptr, ptr %5, align 8, !tbaa !9
  %76 = icmp ne ptr %74, %75
  br i1 %76, label %77, label %78

77:                                               ; preds = %73
  call void @av_frame_free(ptr noundef %5)
  br label %78

78:                                               ; preds = %77, %73
  %79 = load ptr, ptr %7, align 8, !tbaa !4
  %80 = load ptr, ptr %10, align 8, !tbaa !9
  %81 = call i32 @ff_filter_frame(ptr noundef %79, ptr noundef %80)
  store i32 %81, ptr %3, align 4
  store i32 1, ptr %12, align 4
  br label %82

82:                                               ; preds = %78, %71, %40
  call void @llvm.lifetime.end.p0(i64 4, ptr %11) #9
  call void @llvm.lifetime.end.p0(i64 8, ptr %10) #9
  call void @llvm.lifetime.end.p0(i64 16, ptr %9) #9
  call void @llvm.lifetime.end.p0(i64 8, ptr %8) #9
  call void @llvm.lifetime.end.p0(i64 8, ptr %7) #9
  call void @llvm.lifetime.end.p0(i64 8, ptr %6) #9
  %83 = load i32, ptr %3, align 4
  ret i32 %83
}